target datalayout = "e-m:e-p270:32:32-p271:32:32-p272:64:64-i64:64-i128:128-f80:128-n8:16:32:64-S128"
target triple = "x86_64-pc-linux-gnu"

%struct.m_area_tag = type { ptr, i64, i64, ptr }

; Function Attrs: nounwind uwtable
define zeroext i1 @html_normalise_mem_form_data(ptr noundef %0, ptr noundef %1, i64 noundef %2, ptr noundef %3, ptr noundef %4, ptr noundef %5, ptr noundef %6) #0 {
  %8 = alloca ptr, align 8
  %9 = alloca ptr, align 8
  %10 = alloca i64, align 8
  %11 = alloca ptr, align 8
  %12 = alloca ptr, align 8
  %13 = alloca ptr, align 8
  %14 = alloca ptr, align 8
  %15 = alloca %struct.m_area_tag, align 8
  store ptr %0, ptr %8, align 8, !tbaa !32
  store ptr %1, ptr %9, align 8, !tbaa !8
  store i64 %2, ptr %10, align 8, !tbaa !28
  store ptr %3, ptr %11, align 8, !tbaa !8
  store ptr %4, ptr %12, align 8, !tbaa !3
  store ptr %5, ptr %13, align 8, !tbaa !34
  store ptr %6, ptr %14, align 8, !tbaa !21
  call void @llvm.lifetime.start.p0(i64 32, ptr %15) #12
  %16 = load ptr, ptr %9, align 8, !tbaa !8
  %17 = getelementptr inbounds nuw %struct.m_area_tag, ptr %15, i32 0, i32 0
  store ptr %16, ptr %17, align 8, !tbaa !36
  %18 = load i64, ptr %10, align 8, !tbaa !28
  %19 = getelementptr inbounds nuw %struct.m_area_tag, ptr %15, i32 0, i32 1
  store i64 %18, ptr %19, align 8, !tbaa !39
  %20 = getelementptr inbounds nuw %struct.m_area_tag, ptr %15, i32 0, i32 2
  store i64 0, ptr %20, align 8, !tbaa !40
  %21 = getelementptr inbounds nuw %struct.m_area_tag, ptr %15, i32 0, i32 3
  store ptr null, ptr %21, align 8, !tbaa !41
  %22 = load ptr, ptr %8, align 8, !tbaa !32
  %23 = load ptr, ptr %11, align 8, !tbaa !8
  %24 = load ptr, ptr %12, align 8, !tbaa !3
  %25 = load ptr, ptr %13, align 8, !tbaa !34
  %26 = load ptr, ptr %14, align 8, !tbaa !21
  %27 = call zeroext i1 @cli_html_normalise(ptr noundef %22, i32 noundef -1, ptr noundef %15, ptr noundef %23, ptr noundef %24, ptr noundef %25, ptr noundef %26)
  call void @llvm.lifetime.end.p0(i64 32, ptr %15) #12
  ret i1 %27
}