; Function Attrs: nounwind uwtable
define noundef zeroext i1 @html_normalise_mem_form_data(ptr noundef %0, ptr noundef %1, i64 noundef %2, ptr noundef %3, ptr noundef %4, ptr noundef %5, ptr noundef %6) local_unnamed_addr #0 {
  %8 = alloca %struct.m_area_tag, align 8
  call void @llvm.lifetime.start.p0(i64 32, ptr nonnull %8) #17
  store ptr %1, ptr %8, align 8, !tbaa !25
  %9 = getelementptr inbounds nuw i8, ptr %8, i64 8
  store i64 %2, ptr %9, align 8, !tbaa !28
  %10 = getelementptr inbounds nuw i8, ptr %8, i64 16
  call void @llvm.memset.p0.i64(ptr noundef nonnull align 8 dereferenceable(16) %10, i8 0, i64 16, i1 false)
  %11 = call fastcc zeroext i1 @cli_html_normalise(ptr noundef %0, ptr noundef %8, ptr noundef %3, ptr noundef %4, ptr noundef %5, ptr noundef %6)
  call void @llvm.lifetime.end.p0(i64 32, ptr nonnull %8) #17
  ret i1 %11
}